target datalayout = "e-m:e-p270:32:32-p271:32:32-p272:64:64-i64:64-i128:128-f80:128-n8:16:32:64-S128"
target triple = "x86_64-pc-linux-gnu"

%struct.pg_compress_specification = type { i32, i32, i32, i32, i8, ptr }
%struct.CompressFileHandle = type { ptr, ptr, ptr, ptr, ptr, ptr, ptr, ptr, ptr, %struct.pg_compress_specification, ptr }

@.str.6 = private unnamed_addr constant [5 x i8] c"%s%d\00", align 1

; Function Attrs: nounwind uwtable
define internal zeroext i1 @Gzip_open(ptr noundef %0, i32 noundef %1, ptr noundef %2, ptr noundef %3) #0 {
  %5 = alloca i1, align 1
  %6 = alloca ptr, align 8
  %7 = alloca i32, align 4
  %8 = alloca ptr, align 8
  %9 = alloca ptr, align 8
  %10 = alloca ptr, align 8
  %11 = alloca [32 x i8], align 16
  %12 = alloca i32, align 4
  store ptr %0, ptr %6, align 8
  store i32 %1, ptr %7, align 4
  store ptr %2, ptr %8, align 8
  store ptr %3, ptr %9, align 8
  call void @llvm.lifetime.start.p0(i64 8, ptr %10) #7
  call void @llvm.lifetime.start.p0(i64 32, ptr %11) #7
  %13 = load ptr, ptr %9, align 8
  %14 = getelementptr inbounds nuw %struct.CompressFileHandle, ptr %13, i32 0, i32 9
  %15 = getelementptr inbounds nuw %struct.pg_compress_specification, ptr %14, i32 0, i32 2
  %16 = load i32, ptr %15, align 8
  %17 = icmp ne i32 %16, -1
  br i1 %17, label %18, label %26

18:                                               ; preds = %4
  %19 = getelementptr inbounds [32 x i8], ptr %11, i64 0, i64 0
  %20 = load ptr, ptr %8, align 8
  %21 = load ptr, ptr %9, align 8
  %22 = getelementptr inbounds nuw %struct.CompressFileHandle, ptr %21, i32 0, i32 9
  %23 = getelementptr inbounds nuw %struct.pg_compress_specification, ptr %22, i32 0, i32 2
  %24 = load i32, ptr %23, align 8
  %25 = call i32 (ptr, i64, ptr, ...) @pg_snprintf(ptr noundef %19, i64 noundef 32, ptr noundef @.str.6, ptr noundef %20, i32 noundef %24)
  br label %30

26:                                               ; preds = %4
  %27 = getelementptr inbounds [32 x i8], ptr %11, i64 0, i64 0
  %28 = load ptr, ptr %8, align 8
  %29 = call ptr @strcpy(ptr noundef %27, ptr noundef %28) #7
  br label %30

30:                                               ; preds = %26, %18
  %31 = load i32, ptr %7, align 4
  %32 = icmp sge i32 %31, 0
  br i1 %32, label %33, label %38

33:                                               ; preds = %30
  %34 = load i32, ptr %7, align 4
  %35 = call i32 @dup(i32 noundef %34) #7
  %36 = getelementptr inbounds [32 x i8], ptr %11, i64 0, i64 0
  %37 = call ptr @gzdopen(i32 noundef %35, ptr noundef %36)
  store ptr %37, ptr %10, align 8
  br label %42

38:                                               ; preds = %30
  %39 = load ptr, ptr %6, align 8
  %40 = getelementptr inbounds [32 x i8], ptr %11, i64 0, i64 0
  %41 = call ptr @gzopen(ptr noundef %39, ptr noundef %40)
  store ptr %41, ptr %10, align 8
  br label %42

42:                                               ; preds = %38, %33
  %43 = load ptr, ptr %10, align 8
  %44 = icmp eq ptr %43, null
  br i1 %44, label %45, label %46

45:                                               ; preds = %42
  store i1 false, ptr %5, align 1
  store i32 1, ptr %12, align 4
  br label %50

46:                                               ; preds = %42
  %47 = load ptr, ptr %10, align 8
  %48 = load ptr, ptr %9, align 8
  %49 = getelementptr inbounds nuw %struct.CompressFileHandle, ptr %48, i32 0, i32 10
  store ptr %47, ptr %49, align 8
  store i1 true, ptr %5, align 1
  store i32 1, ptr %12, align 4
  br label %50

50:                                               ; preds = %46, %45
  call void @llvm.lifetime.end.p0(i64 32, ptr %11) #7
  call void @llvm.lifetime.end.p0(i64 8, ptr %10) #7
  %51 = load i1, ptr %5, align 1
  ret i1 %51
}