; Function Attrs: nounwind uwtable
define internal noundef zeroext i1 @Gzip_open(ptr noundef %0, i32 noundef %1, ptr noundef %2, ptr noundef captures(none) %3) #0 {
  %5 = alloca [32 x i8], align 16
  call void @llvm.lifetime.start.p0(i64 32, ptr nonnull %5) #11
  %6 = getelementptr inbounds nuw i8, ptr %3, i64 80
  %7 = load i32, ptr %6, align 8
  %.not = icmp eq i32 %7, -1
  br i1 %.not, label %10, label %8

8:                                                ; preds = %4
  %9 = call i32 (ptr, i64, ptr, ...) @pg_snprintf(ptr noundef nonnull %5, i64 noundef 32, ptr noundef nonnull @.str.6, ptr noundef %2, i32 noundef %7) #11
  br label %12

10:                                               ; preds = %4
  %11 = call ptr @strcpy(ptr noundef nonnull dereferenceable(1) %5, ptr noundef nonnull dereferenceable(1) %2) #11
  br label %12

12:                                               ; preds = %10, %8
  %13 = icmp sgt i32 %1, -1
  br i1 %13, label %14, label %17

14:                                               ; preds = %12
  %15 = call i32 @dup(i32 noundef %1) #11
  %16 = call ptr @gzdopen(i32 noundef %15, ptr noundef nonnull %5) #11
  br label %19

17:                                               ; preds = %12
  %18 = call ptr @gzopen(ptr noundef %0, ptr noundef nonnull %5) #11
  br label %19

19:                                               ; preds = %17, %14
  %.0 = phi ptr [ %16, %14 ], [ %18, %17 ]
  %20 = icmp ne ptr %.0, null
  br i1 %20, label %21, label %23

21:                                               ; preds = %19
  %22 = getelementptr inbounds nuw i8, ptr %3, i64 104
  store ptr %.0, ptr %22, align 8
  br label %23

23:                                               ; preds = %19, %21
  call void @llvm.lifetime.end.p0(i64 32, ptr nonnull %5) #11
  ret i1 %20
}